target datalayout = "e-m:e-p270:32:32-p271:32:32-p272:64:64-i64:64-i128:128-f80:128-n8:16:32:64-S128"
target triple = "x86_64-pc-linux-gnu"

%struct.Qureg = type { i32, i32, i32, i64, i64, i32, i32, %struct.ComplexArray, %struct.ComplexArray, %struct.ComplexArray, ptr, ptr, ptr, ptr, ptr, ptr }
%struct.ComplexArray = type { ptr, ptr }
%struct.ComplexMatrixN = type { i32, ptr, ptr }

@__func__.controlledMultiQubitUnitary = private unnamed_addr constant [28 x i8] c"controlledMultiQubitUnitary\00", align 1
@.str.6 = private unnamed_addr constant [65 x i8] c"Here, an undisclosed controlled multi-qubit unitary was applied.\00", align 1

; Function Attrs: nounwind uwtable
define void @controlledMultiQubitUnitary(ptr noundef byval(%struct.Qureg) align 8 %0, i32 noundef %1, ptr noundef %2, i32 noundef %3, ptr noundef byval(%struct.ComplexMatrixN) align 8 %4) #0 {
  %6 = alloca i32, align 4
  %7 = alloca ptr, align 8
  %8 = alloca i32, align 4
  %9 = alloca [1 x i32], align 4
  %10 = alloca i32, align 4
  store i32 %1, ptr %6, align 4, !tbaa !4
  store ptr %2, ptr %7, align 8, !tbaa !27
  store i32 %3, ptr %8, align 4, !tbaa !4
  %11 = load i32, ptr %6, align 4, !tbaa !4
  store i32 %11, ptr %9, align 4, !tbaa !4
  %12 = getelementptr inbounds [1 x i32], ptr %9, i64 0, i64 0
  %13 = load ptr, ptr %7, align 8, !tbaa !27
  %14 = load i32, ptr %8, align 4, !tbaa !4
  call void @validateMultiControlsMultiTargets(ptr noundef byval(%struct.Qureg) align 8 %0, ptr noundef %12, i32 noundef 1, ptr noundef %13, i32 noundef %14, ptr noundef @__func__.controlledMultiQubitUnitary)
  %15 = load i32, ptr %8, align 4, !tbaa !4
  call void @validateMultiQubitUnitaryMatrix(ptr noundef byval(%struct.Qureg) align 8 %0, ptr noundef byval(%struct.ComplexMatrixN) align 8 %4, i32 noundef %15, ptr noundef @__func__.controlledMultiQubitUnitary)
  %16 = load i32, ptr %6, align 4, !tbaa !4
  %17 = load ptr, ptr %7, align 8, !tbaa !27
  %18 = load i32, ptr %8, align 4, !tbaa !4
  call void @statevec_controlledMultiQubitUnitary(ptr noundef byval(%struct.Qureg) align 8 %0, i32 noundef %16, ptr noundef %17, i32 noundef %18, ptr noundef byval(%struct.ComplexMatrixN) align 8 %4)
  %19 = getelementptr inbounds nuw %struct.Qureg, ptr %0, i32 0, i32 0
  %20 = load i32, ptr %19, align 8, !tbaa !13
  %21 = icmp ne i32 %20, 0
  br i1 %21, label %22, label %37

22:                                               ; preds = %5
  call void @llvm.lifetime.start.p0(i64 4, ptr %10) #7
  %23 = getelementptr inbounds nuw %struct.Qureg, ptr %0, i32 0, i32 1
  %24 = load i32, ptr %23, align 4, !tbaa !18
  store i32 %24, ptr %10, align 4, !tbaa !4
  %25 = load ptr, ptr %7, align 8, !tbaa !27
  %26 = load i32, ptr %8, align 4, !tbaa !4
  %27 = load i32, ptr %10, align 4, !tbaa !4
  call void @shiftIndices(ptr noundef %25, i32 noundef %26, i32 noundef %27)
  call void @setConjugateMatrixN(ptr noundef byval(%struct.ComplexMatrixN) align 8 %4)
  %28 = load i32, ptr %6, align 4, !tbaa !4
  %29 = load i32, ptr %10, align 4, !tbaa !4
  %30 = add nsw i32 %28, %29
  %31 = load ptr, ptr %7, align 8, !tbaa !27
  %32 = load i32, ptr %8, align 4, !tbaa !4
  call void @statevec_controlledMultiQubitUnitary(ptr noundef byval(%struct.Qureg) align 8 %0, i32 noundef %30, ptr noundef %31, i32 noundef %32, ptr noundef byval(%struct.ComplexMatrixN) align 8 %4)
  %33 = load ptr, ptr %7, align 8, !tbaa !27
  %34 = load i32, ptr %8, align 4, !tbaa !4
  %35 = load i32, ptr %10, align 4, !tbaa !4
  %36 = sub nsw i32 0, %35
  call void @shiftIndices(ptr noundef %33, i32 noundef %34, i32 noundef %36)
  call void @setConjugateMatrixN(ptr noundef byval(%struct.ComplexMatrixN) align 8 %4)
  call void @llvm.lifetime.end.p0(i64 4, ptr %10) #7
  br label %37

37:                                               ; preds = %22, %5
  call void (ptr, ptr, ...) @qasm_recordComment(ptr noundef byval(%struct.Qureg) align 8 %0, ptr noundef @.str.6)
  ret void
}