; Function Attrs: nounwind uwtable
define void @controlledMultiQubitUnitary(ptr noundef readonly byval(%struct.Qureg) align 8 captures(none) %0, i32 noundef %1, ptr noundef %2, i32 noundef %3, ptr noundef readonly byval(%struct.ComplexMatrixN) align 8 captures(none) %4) local_unnamed_addr #0 {
  %6 = alloca [1 x i32], align 4
  store i32 %1, ptr %6, align 4, !tbaa !20
  call void @validateMultiControlsMultiTargets(ptr noundef nonnull byval(%struct.Qureg) align 8 %0, ptr noundef nonnull %6, i32 noundef 1, ptr noundef %2, i32 noundef %3, ptr noundef nonnull @__func__.controlledMultiQubitUnitary) #17
  call void @validateMultiQubitUnitaryMatrix(ptr noundef nonnull byval(%struct.Qureg) align 8 %0, ptr noundef nonnull byval(%struct.ComplexMatrixN) align 8 %4, i32 noundef %3, ptr noundef nonnull @__func__.controlledMultiQubitUnitary) #17
  call void @statevec_controlledMultiQubitUnitary(ptr noundef nonnull byval(%struct.Qureg) align 8 %0, i32 noundef %1, ptr noundef %2, i32 noundef %3, ptr noundef nonnull byval(%struct.ComplexMatrixN) align 8 %4) #17
  %7 = load i32, ptr %0, align 8, !tbaa !12
  %.not = icmp eq i32 %7, 0
  br i1 %.not, label %13, label %8

8:                                                ; preds = %5
  %9 = getelementptr inbounds nuw i8, ptr %0, i64 4
  %10 = load i32, ptr %9, align 4, !tbaa !17
  call void @shiftIndices(ptr noundef %2, i32 noundef %3, i32 noundef %10) #17
  call void @setConjugateMatrixN(ptr noundef nonnull byval(%struct.ComplexMatrixN) align 8 %4) #17
  %11 = add nsw i32 %10, %1
  call void @statevec_controlledMultiQubitUnitary(ptr noundef nonnull byval(%struct.Qureg) align 8 %0, i32 noundef %11, ptr noundef %2, i32 noundef %3, ptr noundef nonnull byval(%struct.ComplexMatrixN) align 8 %4) #17
  %12 = sub nsw i32 0, %10
  call void @shiftIndices(ptr noundef %2, i32 noundef %3, i32 noundef %12) #17
  call void @setConjugateMatrixN(ptr noundef nonnull byval(%struct.ComplexMatrixN) align 8 %4) #17
  br label %13

13:                                               ; preds = %8, %5
  call void (ptr, ptr, ...) @qasm_recordComment(ptr noundef nonnull byval(%struct.Qureg) align 8 %0, ptr noundef nonnull @.str.6) #17
  ret void
}